; Function Attrs: nounwind sspstrong uwtable
define internal i64 @objspace_internal_class_of(i64 %0, i64 noundef %1) #0 {
  %3 = tail call i32 @rb_typeddata_is_kind_of(i64 noundef %1, ptr noundef nonnull @iow_data_type) #7
  %.not = icmp eq i32 %3, 0
  br i1 %.not, label %9, label %4

4:                                                ; preds = %2
  %5 = inttoptr i64 %1 to ptr
  %6 = getelementptr inbounds nuw i8, ptr %5, i64 32
  %7 = load ptr, ptr %6, align 8, !tbaa !22
  %8 = ptrtoint ptr %7 to i64
  br label %9

9:                                                ; preds = %2, %4
  %.06 = phi i64 [ %8, %4 ], [ %1, %2 ]
  %10 = icmp eq i64 %.06, 0
  %11 = and i64 %.06, 7
  %12 = icmp ne i64 %11, 0
  %13 = or i1 %10, %12
  br i1 %13, label %20, label %rbimpl_RB_TYPE_P_fastpath.exit

rbimpl_RB_TYPE_P_fastpath.exit:                   ; preds = %9
  %14 = inttoptr i64 %.06 to ptr
  %15 = load i64, ptr %14, align 8, !tbaa !32
  %16 = and i64 %15, 31
  %17 = icmp eq i64 %16, 26
  br i1 %17, label %wrap_klass_iow.exit, label %18

18:                                               ; preds = %rbimpl_RB_TYPE_P_fastpath.exit
  %19 = getelementptr inbounds nuw i8, ptr %14, i64 8
  br label %rb_class_of.exit

20:                                               ; preds = %9
  switch i64 %.06, label %23 [
    i64 0, label %rb_class_of.exit
    i64 4, label %21
    i64 20, label %22
  ]

21:                                               ; preds = %20
  br label %rb_class_of.exit

22:                                               ; preds = %20
  br label %rb_class_of.exit

23:                                               ; preds = %20
  %24 = and i64 %.06, 1
  %.not.i = icmp eq i64 %24, 0
  br i1 %.not.i, label %25, label %rb_class_of.exit

25:                                               ; preds = %23
  %26 = and i64 %.06, 254
  %27 = icmp eq i64 %26, 12
  %spec.select.i = select i1 %27, ptr @rb_cSymbol, ptr @rb_cFloat
  br label %rb_class_of.exit

rb_class_of.exit:                                 ; preds = %18, %20, %21, %22, %23, %25
  %.0.in.i = phi ptr [ @rb_cNilClass, %21 ], [ @rb_cTrueClass, %22 ], [ %19, %18 ], [ @rb_cFalseClass, %20 ], [ @rb_cInteger, %23 ], [ %spec.select.i, %25 ]
  %.0.i7 = load i64, ptr %.0.in.i, align 8, !tbaa !6
  %28 = and i64 %.0.i7, -5
  %.not.i8 = icmp eq i64 %28, 0
  br i1 %.not.i8, label %wrap_klass_iow.exit, label %29

29:                                               ; preds = %rb_class_of.exit
  %30 = and i64 %.0.i7, 7
  %.not8.i = icmp eq i64 %30, 0
  br i1 %.not8.i, label %rbimpl_RB_TYPE_P_fastpath.exit.i, label %37

rbimpl_RB_TYPE_P_fastpath.exit.i:                 ; preds = %29
  %31 = inttoptr i64 %.0.i7 to ptr
  %32 = load i64, ptr %31, align 8, !tbaa !32
  %33 = and i64 %32, 31
  %34 = icmp eq i64 %33, 28
  br i1 %34, label %45, label %35

35:                                               ; preds = %rbimpl_RB_TYPE_P_fastpath.exit.i
  %36 = getelementptr inbounds nuw i8, ptr %31, i64 8
  br label %rb_class_of.exit.i

37:                                               ; preds = %29
  switch i64 %.0.i7, label %39 [
    i64 20, label %38
    i64 4, label %rb_class_of.exit.i
  ]

38:                                               ; preds = %37
  br label %rb_class_of.exit.i

39:                                               ; preds = %37
  %40 = and i64 %.0.i7, 1
  %.not.i.i = icmp eq i64 %40, 0
  br i1 %.not.i.i, label %41, label %rb_class_of.exit.i

41:                                               ; preds = %39
  %42 = and i64 %.0.i7, 254
  %43 = icmp eq i64 %42, 12
  %spec.select.i.i = select i1 %43, ptr @rb_cSymbol, ptr @rb_cFloat
  br label %rb_class_of.exit.i

rb_class_of.exit.i:                               ; preds = %41, %39, %38, %37, %35
  %.0.in.i.i = phi ptr [ @rb_cTrueClass, %38 ], [ %36, %35 ], [ @rb_cInteger, %39 ], [ %spec.select.i.i, %41 ], [ @rb_cNilClass, %37 ]
  %.0.i6.i = load i64, ptr %.0.in.i.i, align 8, !tbaa !6
  %44 = icmp eq i64 %.0.i6.i, 0
  br i1 %44, label %rb_class_of.exit._crit_edge.i, label %wrap_klass_iow.exit

rb_class_of.exit._crit_edge.i:                    ; preds = %rb_class_of.exit.i
  %.pre.i = inttoptr i64 %.0.i7 to ptr
  br label %45

45:                                               ; preds = %rb_class_of.exit._crit_edge.i, %rbimpl_RB_TYPE_P_fastpath.exit.i
  %.pre-phi.i = phi ptr [ %.pre.i, %rb_class_of.exit._crit_edge.i ], [ %31, %rbimpl_RB_TYPE_P_fastpath.exit.i ]
  %46 = load i64, ptr @rb_cInternalObjectWrapper, align 8, !tbaa !6
  %47 = tail call i64 @rb_data_typed_object_wrap(i64 noundef %46, ptr noundef %.pre-phi.i, ptr noundef nonnull @iow_data_type) #7
  br label %wrap_klass_iow.exit

wrap_klass_iow.exit:                              ; preds = %45, %rb_class_of.exit.i, %rb_class_of.exit, %rbimpl_RB_TYPE_P_fastpath.exit
  %.0 = phi i64 [ 4, %rbimpl_RB_TYPE_P_fastpath.exit ], [ %47, %45 ], [ 4, %rb_class_of.exit ], [ %.0.i7, %rb_class_of.exit.i ]
  ret i64 %.0
}